; Function Attrs: nounwind uwtable
define internal ptr @kdf_sshkdf_dup(ptr noundef %0) #0 {
  %2 = load ptr, ptr %0, align 8, !tbaa !3
  %3 = tail call i32 @ossl_prov_is_running() #6
  %.not.i = icmp eq i32 %3, 0
  br i1 %.not.i, label %kdf_sshkdf_new.exit.thread, label %4

4:                                                ; preds = %1
  %5 = tail call noalias ptr @CRYPTO_zalloc(i64 noundef 88, ptr noundef nonnull @.str, i32 noundef 63) #6
  %.not5.i = icmp eq ptr %5, null
  br i1 %.not5.i, label %kdf_sshkdf_new.exit.thread, label %6

6:                                                ; preds = %4
  store ptr %2, ptr %5, align 8, !tbaa !3
  %7 = getelementptr inbounds nuw i8, ptr %0, i64 32
  %8 = load ptr, ptr %7, align 8, !tbaa !13
  %9 = getelementptr inbounds nuw i8, ptr %0, i64 40
  %10 = load i64, ptr %9, align 8, !tbaa !14
  %11 = getelementptr inbounds nuw i8, ptr %5, i64 32
  %12 = getelementptr inbounds nuw i8, ptr %5, i64 40
  %13 = tail call i32 @ossl_prov_memdup(ptr noundef %8, i64 noundef %10, ptr noundef nonnull %11, ptr noundef nonnull %12) #6
  %.not23 = icmp eq i32 %13, 0
  br i1 %.not23, label %kdf_sshkdf_free.exit, label %14

14:                                               ; preds = %6
  %15 = getelementptr inbounds nuw i8, ptr %0, i64 48
  %16 = load ptr, ptr %15, align 8, !tbaa !15
  %17 = getelementptr inbounds nuw i8, ptr %0, i64 56
  %18 = load i64, ptr %17, align 8, !tbaa !16
  %19 = getelementptr inbounds nuw i8, ptr %5, i64 48
  %20 = getelementptr inbounds nuw i8, ptr %5, i64 56
  %21 = tail call i32 @ossl_prov_memdup(ptr noundef %16, i64 noundef %18, ptr noundef nonnull %19, ptr noundef nonnull %20) #6
  %.not24 = icmp eq i32 %21, 0
  br i1 %.not24, label %kdf_sshkdf_free.exit, label %22

22:                                               ; preds = %14
  %23 = getelementptr inbounds nuw i8, ptr %0, i64 72
  %24 = load ptr, ptr %23, align 8, !tbaa !17
  %25 = getelementptr inbounds nuw i8, ptr %0, i64 80
  %26 = load i64, ptr %25, align 8, !tbaa !18
  %27 = getelementptr inbounds nuw i8, ptr %5, i64 72
  %28 = getelementptr inbounds nuw i8, ptr %5, i64 80
  %29 = tail call i32 @ossl_prov_memdup(ptr noundef %24, i64 noundef %26, ptr noundef nonnull %27, ptr noundef nonnull %28) #6
  %.not25 = icmp eq i32 %29, 0
  br i1 %.not25, label %kdf_sshkdf_free.exit, label %30

30:                                               ; preds = %22
  %31 = getelementptr inbounds nuw i8, ptr %5, i64 8
  %32 = getelementptr inbounds nuw i8, ptr %0, i64 8
  %33 = tail call i32 @ossl_prov_digest_copy(ptr noundef nonnull %31, ptr noundef nonnull %32) #6
  %.not26 = icmp eq i32 %33, 0
  br i1 %.not26, label %kdf_sshkdf_free.exit, label %34

34:                                               ; preds = %30
  %35 = getelementptr inbounds nuw i8, ptr %0, i64 64
  %36 = load i8, ptr %35, align 8, !tbaa !19
  %37 = getelementptr inbounds nuw i8, ptr %5, i64 64
  store i8 %36, ptr %37, align 8, !tbaa !19
  br label %kdf_sshkdf_new.exit.thread

kdf_sshkdf_free.exit:                             ; preds = %6, %14, %22, %30
  %38 = load ptr, ptr %5, align 8, !tbaa !3
  %39 = getelementptr inbounds nuw i8, ptr %5, i64 8
  tail call void @ossl_prov_digest_reset(ptr noundef nonnull %39) #6
  %40 = load ptr, ptr %11, align 8, !tbaa !13
  %41 = load i64, ptr %12, align 8, !tbaa !14
  tail call void @CRYPTO_clear_free(ptr noundef %40, i64 noundef %41, ptr noundef nonnull @.str, i32 noundef 86) #6
  %42 = getelementptr inbounds nuw i8, ptr %5, i64 48
  %43 = load ptr, ptr %42, align 8, !tbaa !15
  %44 = getelementptr inbounds nuw i8, ptr %5, i64 56
  %45 = load i64, ptr %44, align 8, !tbaa !16
  tail call void @CRYPTO_clear_free(ptr noundef %43, i64 noundef %45, ptr noundef nonnull @.str, i32 noundef 87) #6
  %46 = getelementptr inbounds nuw i8, ptr %5, i64 72
  %47 = load ptr, ptr %46, align 8, !tbaa !17
  %48 = getelementptr inbounds nuw i8, ptr %5, i64 80
  %49 = load i64, ptr %48, align 8, !tbaa !18
  tail call void @CRYPTO_clear_free(ptr noundef %47, i64 noundef %49, ptr noundef nonnull @.str, i32 noundef 88) #6
  tail call void @llvm.memset.p0.i64(ptr noundef nonnull align 8 dereferenceable(88) %39, i8 0, i64 80, i1 false)
  store ptr %38, ptr %5, align 8, !tbaa !3
  tail call void @CRYPTO_free(ptr noundef nonnull %5, ptr noundef nonnull @.str, i32 noundef 76) #6
  br label %kdf_sshkdf_new.exit.thread

kdf_sshkdf_new.exit.thread:                       ; preds = %4, %1, %34, %kdf_sshkdf_free.exit
  %.0 = phi ptr [ null, %kdf_sshkdf_free.exit ], [ %5, %34 ], [ null, %1 ], [ null, %4 ]
  ret ptr %.0
}